
example.o:     file format elf64-x86-64


Disassembly of section .text:

0000000000000000 <factorial>:
   0:	f3 0f 1e fa          	endbr64 
   4:	55                   	push   %rbp
   5:	48 89 e5             	mov    %rsp,%rbp
   8:	48 83 ec 10          	sub    $0x10,%rsp
   c:	89 7d fc             	mov    %edi,-0x4(%rbp)
   f:	83 7d fc 01          	cmpl   $0x1,-0x4(%rbp)
  13:	7f 07                	jg     1c <factorial+0x1c>
  15:	b8 01 00 00 00       	mov    $0x1,%eax
  1a:	eb 11                	jmp    2d <factorial+0x2d>
  1c:	8b 45 fc             	mov    -0x4(%rbp),%eax
  1f:	83 e8 01             	sub    $0x1,%eax
  22:	89 c7                	mov    %eax,%edi
  24:	e8 00 00 00 00       	call   29 <factorial+0x29>
  29:	0f af 45 fc          	imul   -0x4(%rbp),%eax
  2d:	c9                   	leave  
  2e:	c3                   	ret    

000000000000002f <main>:
  2f:	f3 0f 1e fa          	endbr64 
  33:	55                   	push   %rbp
  34:	48 89 e5             	mov    %rsp,%rbp
  37:	bf 05 00 00 00       	mov    $0x5,%edi
  3c:	e8 00 00 00 00       	call   41 <main+0x12>
  41:	89 c6                	mov    %eax,%esi
  43:	48 8d 05 00 00 00 00 	lea    0x0(%rip),%rax        # 4a <main+0x1b>
  4a:	48 89 c7             	mov    %rax,%rdi
  4d:	b8 00 00 00 00       	mov    $0x0,%eax
  52:	e8 00 00 00 00       	call   57 <main+0x28>
  57:	be 64 00 00 00       	mov    $0x64,%esi
  5c:	48 8d 05 00 00 00 00 	lea    0x0(%rip),%rax        # 63 <main+0x34>
  63:	48 89 c7             	mov    %rax,%rdi
  66:	b8 00 00 00 00       	mov    $0x0,%eax
  6b:	e8 00 00 00 00       	call   70 <main+0x41>
  70:	b8 00 00 00 00       	mov    $0x0,%eax
  75:	5d                   	pop    %rbp
  76:	c3                   	ret    
